target datalayout = "e-m:e-p270:32:32-p271:32:32-p272:64:64-i64:64-i128:128-f80:128-n8:16:32:64-S128"
target triple = "x86_64-pc-linux-gnu"

%struct.trace_key = type { ptr, i32, i8 }
%struct.thread_data = type { i64, ptr, %struct.pathspec, ptr, i32, i32, i32 }
%struct.pathspec = type { i32, i8, i32, i32, ptr }
%struct.progress_data = type { i64, ptr, %union.pthread_mutex_t }
%union.pthread_mutex_t = type { %struct.__pthread_mutex_s }
%struct.__pthread_mutex_s = type { i32, i32, i32, i32, i32, i16, i16, %struct.__pthread_internal_list }
%struct.__pthread_internal_list = type { ptr, ptr }
%struct.index_state = type { ptr, i32, i32, i32, i32, ptr, ptr, ptr, %struct.cache_time, i8, i32, %struct.hashmap, %struct.hashmap, %struct.object_id, ptr, ptr, ptr, ptr, ptr, ptr, ptr }
%struct.cache_time = type { i32, i32 }
%struct.hashmap = type { ptr, ptr, ptr, i32, i32, i32, i32, i8 }
%struct.object_id = type { [32 x i8], i32 }

@core_preload_index = external global i32, align 4
@.str = private unnamed_addr constant [23 x i8] c"GIT_TEST_PRELOAD_INDEX\00", align 1
@.str.1 = private unnamed_addr constant [16 x i8] c"preload-index.c\00", align 1
@.str.2 = private unnamed_addr constant [6 x i8] c"index\00", align 1
@.str.3 = private unnamed_addr constant [8 x i8] c"preload\00", align 1
@the_repository = external global ptr, align 8
@.str.4 = private unnamed_addr constant [17 x i8] c"Refreshing index\00", align 1
@.str.5 = private unnamed_addr constant [36 x i8] c"unable to create threaded lstat: %s\00", align 1
@.str.6 = private unnamed_addr constant [30 x i8] c"unable to join threaded lstat\00", align 1
@trace_perf_key = external global %struct.trace_key, align 8
@.str.7 = private unnamed_addr constant [14 x i8] c"preload index\00", align 1
@.str.8 = private unnamed_addr constant [18 x i8] c"preload/sum_lstat\00", align 1
@.str.12 = private unnamed_addr constant [5 x i8] c"done\00", align 1

; Function Attrs: inlinehint nounwind uwtable
define internal i32 @trace_pass_fl(ptr noundef %0) #5 {
  %2 = alloca ptr, align 8
  store ptr %0, ptr %2, align 8, !tbaa !62
  %3 = load ptr, ptr %2, align 8, !tbaa !62
  %4 = getelementptr inbounds nuw %struct.trace_key, ptr %3, i32 0, i32 1
  %5 = load i32, ptr %4, align 8, !tbaa !64
  %6 = icmp ne i32 %5, 0
  br i1 %6, label %15, label %7

7:                                                ; preds = %1
  %8 = load ptr, ptr %2, align 8, !tbaa !62
  %9 = getelementptr inbounds nuw %struct.trace_key, ptr %8, i32 0, i32 2
  %10 = load i8, ptr %9, align 4
  %11 = and i8 %10, 1
  %12 = zext i8 %11 to i32
  %13 = icmp ne i32 %12, 0
  %14 = xor i1 %13, true
  br label %15

15:                                               ; preds = %7, %1
  %16 = phi i1 [ true, %1 ], [ %14, %7 ]
  %17 = zext i1 %16 to i32
  ret i32 %17
}

; Function Attrs: inlinehint nounwind uwtable
define internal void @stop_progress(ptr noundef %0) #5 {
  %2 = alloca ptr, align 8
  store ptr %0, ptr %2, align 8, !tbaa !60
  %3 = load ptr, ptr %2, align 8, !tbaa !60
  %4 = call ptr @_(ptr noundef @.str.12)
  call void @stop_progress_msg(ptr noundef %3, ptr noundef %4)
  ret void
}

; Function Attrs: nounwind uwtable
define dso_local void @preload_index(ptr noundef %0, ptr noundef %1, i32 noundef %2) #0 {
  %4 = alloca ptr, align 8
  %5 = alloca ptr, align 8
  %6 = alloca i32, align 4
  %7 = alloca i32, align 4
  %8 = alloca i32, align 4
  %9 = alloca i32, align 4
  %10 = alloca i32, align 4
  %11 = alloca [20 x %struct.thread_data], align 16
  %12 = alloca %struct.progress_data, align 8
  %13 = alloca i32, align 4
  %14 = alloca i32, align 4
  %15 = alloca ptr, align 8
  %16 = alloca i32, align 4
  %17 = alloca ptr, align 8
  store ptr %0, ptr %4, align 8, !tbaa !4
  store ptr %1, ptr %5, align 8, !tbaa !9
  store i32 %2, ptr %6, align 4, !tbaa !11
  call void @llvm.lifetime.start.p0(i64 4, ptr %7) #8
  call void @llvm.lifetime.start.p0(i64 4, ptr %8) #8
  call void @llvm.lifetime.start.p0(i64 4, ptr %9) #8
  call void @llvm.lifetime.start.p0(i64 4, ptr %10) #8
  call void @llvm.lifetime.start.p0(i64 1280, ptr %11) #8
  call void @llvm.lifetime.start.p0(i64 56, ptr %12) #8
  call void @llvm.lifetime.start.p0(i64 4, ptr %13) #8
  store i32 0, ptr %13, align 4, !tbaa !11
  %18 = load i32, ptr @core_preload_index, align 4, !tbaa !11
  %19 = icmp ne i32 %18, 0
  br i1 %19, label %21, label %20

20:                                               ; preds = %3
  store i32 1, ptr %14, align 4
  br label %176

21:                                               ; preds = %3
  %22 = load ptr, ptr %4, align 8, !tbaa !4
  %23 = getelementptr inbounds nuw %struct.index_state, ptr %22, i32 0, i32 2
  %24 = load i32, ptr %23, align 4, !tbaa !13
  %25 = udiv i32 %24, 500
  store i32 %25, ptr %7, align 4, !tbaa !11
  %26 = load ptr, ptr %4, align 8, !tbaa !4
  %27 = getelementptr inbounds nuw %struct.index_state, ptr %26, i32 0, i32 2
  %28 = load i32, ptr %27, align 4, !tbaa !13
  %29 = icmp ugt i32 %28, 1
  br i1 %29, label %30, label %37

30:                                               ; preds = %21
  %31 = load i32, ptr %7, align 4, !tbaa !11
  %32 = icmp slt i32 %31, 2
  br i1 %32, label %33, label %37

33:                                               ; preds = %30
  %34 = call i32 @git_env_bool(ptr noundef @.str, i32 noundef 0)
  %35 = icmp ne i32 %34, 0
  br i1 %35, label %36, label %37

36:                                               ; preds = %33
  store i32 2, ptr %7, align 4, !tbaa !11
  br label %37

37:                                               ; preds = %36, %33, %30, %21
  %38 = load i32, ptr %7, align 4, !tbaa !11
  %39 = icmp slt i32 %38, 2
  br i1 %39, label %40, label %41

40:                                               ; preds = %37
  store i32 1, ptr %14, align 4
  br label %176

41:                                               ; preds = %37
  call void (ptr, i32, ptr, ptr, ptr, ...) @trace2_region_enter_fl(ptr noundef @.str.1, i32 noundef 124, ptr noundef @.str.2, ptr noundef @.str.3, ptr noundef null)
  %42 = call i64 @trace_performance_enter()
  %43 = load i32, ptr %7, align 4, !tbaa !11
  %44 = icmp sgt i32 %43, 20
  br i1 %44, label %45, label %46

45:                                               ; preds = %41
  store i32 20, ptr %7, align 4, !tbaa !11
  br label %46

46:                                               ; preds = %45, %41
  store i32 0, ptr %10, align 4, !tbaa !11
  %47 = load ptr, ptr %4, align 8, !tbaa !4
  %48 = getelementptr inbounds nuw %struct.index_state, ptr %47, i32 0, i32 2
  %49 = load i32, ptr %48, align 4, !tbaa !13
  %50 = load i32, ptr %7, align 4, !tbaa !11
  %51 = add i32 %49, %50
  %52 = sub i32 %51, 1
  %53 = load i32, ptr %7, align 4, !tbaa !11
  %54 = udiv i32 %52, %53
  store i32 %54, ptr %9, align 4, !tbaa !11
  call void @llvm.memset.p0.i64(ptr align 16 %11, i8 0, i64 1280, i1 false)
  call void @llvm.memset.p0.i64(ptr align 8 %12, i8 0, i64 56, i1 false)
  %55 = load i32, ptr %6, align 4, !tbaa !11
  %56 = and i32 %55, 64
  %57 = icmp ne i32 %56, 0
  br i1 %57, label %58, label %72

58:                                               ; preds = %46
  %59 = call i32 @isatty(i32 noundef 2) #8
  %60 = icmp ne i32 %59, 0
  br i1 %60, label %61, label %72

61:                                               ; preds = %58
  %62 = load ptr, ptr @the_repository, align 8, !tbaa !30
  %63 = call ptr @_(ptr noundef @.str.4)
  %64 = load ptr, ptr %4, align 8, !tbaa !4
  %65 = getelementptr inbounds nuw %struct.index_state, ptr %64, i32 0, i32 2
  %66 = load i32, ptr %65, align 4, !tbaa !13
  %67 = zext i32 %66 to i64
  %68 = call ptr @start_delayed_progress(ptr noundef %62, ptr noundef %63, i64 noundef %67)
  %69 = getelementptr inbounds nuw %struct.progress_data, ptr %12, i32 0, i32 1
  store ptr %68, ptr %69, align 8, !tbaa !31
  %70 = getelementptr inbounds nuw %struct.progress_data, ptr %12, i32 0, i32 2
  %71 = call i32 @pthread_mutex_init(ptr noundef %70, ptr noundef null) #8
  br label %72

72:                                               ; preds = %61, %58, %46
  store i32 0, ptr %8, align 4, !tbaa !11
  br label %73

73:                                               ; preds = %119, %72
  %74 = load i32, ptr %8, align 4, !tbaa !11
  %75 = load i32, ptr %7, align 4, !tbaa !11
  %76 = icmp slt i32 %74, %75
  br i1 %76, label %77, label %122

77:                                               ; preds = %73
  call void @llvm.lifetime.start.p0(i64 8, ptr %15) #8
  %78 = getelementptr inbounds [20 x %struct.thread_data], ptr %11, i64 0, i64 0
  %79 = load i32, ptr %8, align 4, !tbaa !11
  %80 = sext i32 %79 to i64
  %81 = getelementptr inbounds %struct.thread_data, ptr %78, i64 %80
  store ptr %81, ptr %15, align 8, !tbaa !34
  call void @llvm.lifetime.start.p0(i64 4, ptr %16) #8
  %82 = load ptr, ptr %4, align 8, !tbaa !4
  %83 = load ptr, ptr %15, align 8, !tbaa !34
  %84 = getelementptr inbounds nuw %struct.thread_data, ptr %83, i32 0, i32 1
  store ptr %82, ptr %84, align 8, !tbaa !36
  %85 = load ptr, ptr %5, align 8, !tbaa !9
  %86 = icmp ne ptr %85, null
  br i1 %86, label %87, label %91

87:                                               ; preds = %77
  %88 = load ptr, ptr %15, align 8, !tbaa !34
  %89 = getelementptr inbounds nuw %struct.thread_data, ptr %88, i32 0, i32 2
  %90 = load ptr, ptr %5, align 8, !tbaa !9
  call void @copy_pathspec(ptr noundef %89, ptr noundef %90)
  br label %91

91:                                               ; preds = %87, %77
  %92 = load i32, ptr %10, align 4, !tbaa !11
  %93 = load ptr, ptr %15, align 8, !tbaa !34
  %94 = getelementptr inbounds nuw %struct.thread_data, ptr %93, i32 0, i32 4
  store i32 %92, ptr %94, align 8, !tbaa !41
  %95 = load i32, ptr %9, align 4, !tbaa !11
  %96 = load ptr, ptr %15, align 8, !tbaa !34
  %97 = getelementptr inbounds nuw %struct.thread_data, ptr %96, i32 0, i32 5
  store i32 %95, ptr %97, align 4, !tbaa !42
  %98 = getelementptr inbounds nuw %struct.progress_data, ptr %12, i32 0, i32 1
  %99 = load ptr, ptr %98, align 8, !tbaa !31
  %100 = icmp ne ptr %99, null
  br i1 %100, label %101, label %104

101:                                              ; preds = %91
  %102 = load ptr, ptr %15, align 8, !tbaa !34
  %103 = getelementptr inbounds nuw %struct.thread_data, ptr %102, i32 0, i32 3
  store ptr %12, ptr %103, align 8, !tbaa !43
  br label %104

104:                                              ; preds = %101, %91
  %105 = load i32, ptr %9, align 4, !tbaa !11
  %106 = load i32, ptr %10, align 4, !tbaa !11
  %107 = add nsw i32 %106, %105
  store i32 %107, ptr %10, align 4, !tbaa !11
  %108 = load ptr, ptr %15, align 8, !tbaa !34
  %109 = getelementptr inbounds nuw %struct.thread_data, ptr %108, i32 0, i32 0
  %110 = load ptr, ptr %15, align 8, !tbaa !34
  %111 = call i32 @pthread_create(ptr noundef %109, ptr noundef null, ptr noundef @preload_thread, ptr noundef %110) #8
  store i32 %111, ptr %16, align 4, !tbaa !11
  %112 = load i32, ptr %16, align 4, !tbaa !11
  %113 = icmp ne i32 %112, 0
  br i1 %113, label %114, label %118

114:                                              ; preds = %104
  %115 = call ptr @_(ptr noundef @.str.5)
  %116 = load i32, ptr %16, align 4, !tbaa !11
  %117 = call ptr @strerror(i32 noundef %116) #8
  call void (ptr, ...) @die(ptr noundef %115, ptr noundef %117) #9
  unreachable

118:                                              ; preds = %104
  call void @llvm.lifetime.end.p0(i64 4, ptr %16) #8
  call void @llvm.lifetime.end.p0(i64 8, ptr %15) #8
  br label %119

119:                                              ; preds = %118
  %120 = load i32, ptr %8, align 4, !tbaa !11
  %121 = add nsw i32 %120, 1
  store i32 %121, ptr %8, align 4, !tbaa !11
  br label %73, !llvm.loop !44

122:                                              ; preds = %73
  store i32 0, ptr %8, align 4, !tbaa !11
  br label %123

123:                                              ; preds = %144, %122
  %124 = load i32, ptr %8, align 4, !tbaa !11
  %125 = load i32, ptr %7, align 4, !tbaa !11
  %126 = icmp slt i32 %124, %125
  br i1 %126, label %127, label %147

127:                                              ; preds = %123
  call void @llvm.lifetime.start.p0(i64 8, ptr %17) #8
  %128 = getelementptr inbounds [20 x %struct.thread_data], ptr %11, i64 0, i64 0
  %129 = load i32, ptr %8, align 4, !tbaa !11
  %130 = sext i32 %129 to i64
  %131 = getelementptr inbounds %struct.thread_data, ptr %128, i64 %130
  store ptr %131, ptr %17, align 8, !tbaa !34
  %132 = load ptr, ptr %17, align 8, !tbaa !34
  %133 = getelementptr inbounds nuw %struct.thread_data, ptr %132, i32 0, i32 0
  %134 = load i64, ptr %133, align 8, !tbaa !46
  %135 = call i32 @pthread_join(i64 noundef %134, ptr noundef null)
  %136 = icmp ne i32 %135, 0
  br i1 %136, label %137, label %138

137:                                              ; preds = %127
  call void (ptr, ...) @die(ptr noundef @.str.6) #9
  unreachable

138:                                              ; preds = %127
  %139 = load ptr, ptr %17, align 8, !tbaa !34
  %140 = getelementptr inbounds nuw %struct.thread_data, ptr %139, i32 0, i32 6
  %141 = load i32, ptr %140, align 8, !tbaa !47
  %142 = load i32, ptr %13, align 4, !tbaa !11
  %143 = add nsw i32 %142, %141
  store i32 %143, ptr %13, align 4, !tbaa !11
  call void @llvm.lifetime.end.p0(i64 8, ptr %17) #8
  br label %144

144:                                              ; preds = %138
  %145 = load i32, ptr %8, align 4, !tbaa !11
  %146 = add nsw i32 %145, 1
  store i32 %146, ptr %8, align 4, !tbaa !11
  br label %123, !llvm.loop !48

147:                                              ; preds = %123
  %148 = getelementptr inbounds nuw %struct.progress_data, ptr %12, i32 0, i32 1
  call void @stop_progress(ptr noundef %148)
  %149 = load ptr, ptr %5, align 8, !tbaa !9
  %150 = icmp ne ptr %149, null
  br i1 %150, label %151, label %165

151:                                              ; preds = %147
  store i32 0, ptr %8, align 4, !tbaa !11
  br label %152

152:                                              ; preds = %161, %151
  %153 = load i32, ptr %8, align 4, !tbaa !11
  %154 = load i32, ptr %7, align 4, !tbaa !11
  %155 = icmp slt i32 %153, %154
  br i1 %155, label %156, label %164

156:                                              ; preds = %152
  %157 = load i32, ptr %8, align 4, !tbaa !11
  %158 = sext i32 %157 to i64
  %159 = getelementptr inbounds [20 x %struct.thread_data], ptr %11, i64 0, i64 %158
  %160 = getelementptr inbounds nuw %struct.thread_data, ptr %159, i32 0, i32 2
  call void @clear_pathspec(ptr noundef %160)
  br label %161

161:                                              ; preds = %156
  %162 = load i32, ptr %8, align 4, !tbaa !11
  %163 = add nsw i32 %162, 1
  store i32 %163, ptr %8, align 4, !tbaa !11
  br label %152, !llvm.loop !49

164:                                              ; preds = %152
  br label %165

165:                                              ; preds = %164, %147
  br label %166

166:                                              ; preds = %165
  %167 = call i32 @trace_pass_fl(ptr noundef @trace_perf_key)
  %168 = icmp ne i32 %167, 0
  br i1 %168, label %169, label %171

169:                                              ; preds = %166
  %170 = call i64 @getnanotime()
  call void (ptr, i32, i64, ptr, ...) @trace_performance_leave_fl(ptr noundef @.str.1, i32 noundef 172, i64 noundef %170, ptr noundef @.str.7)
  br label %171

171:                                              ; preds = %169, %166
  br label %172

172:                                              ; preds = %171
  br label %173

173:                                              ; preds = %172
  %174 = load i32, ptr %13, align 4, !tbaa !11
  %175 = sext i32 %174 to i64
  call void @trace2_data_intmax_fl(ptr noundef @.str.1, i32 noundef 174, ptr noundef @.str.2, ptr noundef null, ptr noundef @.str.8, i64 noundef %175)
  call void (ptr, i32, ptr, ptr, ptr, ...) @trace2_region_leave_fl(ptr noundef @.str.1, i32 noundef 175, ptr noundef @.str.2, ptr noundef @.str.3, ptr noundef null)
  store i32 0, ptr %14, align 4
  br label %176

176:                                              ; preds = %173, %40, %20
  call void @llvm.lifetime.end.p0(i64 4, ptr %13) #8
  call void @llvm.lifetime.end.p0(i64 56, ptr %12) #8
  call void @llvm.lifetime.end.p0(i64 1280, ptr %11) #8
  call void @llvm.lifetime.end.p0(i64 4, ptr %10) #8
  call void @llvm.lifetime.end.p0(i64 4, ptr %9) #8
  call void @llvm.lifetime.end.p0(i64 4, ptr %8) #8
  call void @llvm.lifetime.end.p0(i64 4, ptr %7) #8
  %177 = load i32, ptr %14, align 4
  switch i32 %177, label %179 [
    i32 0, label %178
    i32 1, label %178
  ]

178:                                              ; preds = %176, %176
  ret void

179:                                              ; preds = %176
  unreachable
}