; Function Attrs: nounwind uwtable
define dso_local void @preload_index(ptr noundef %0, ptr noundef %1, i32 noundef %2) local_unnamed_addr #0 {
  %4 = alloca [20 x %struct.thread_data], align 16
  %5 = alloca %struct.progress_data, align 8
  call void @llvm.lifetime.start.p0(i64 1280, ptr nonnull %4) #10
  call void @llvm.lifetime.start.p0(i64 56, ptr nonnull %5) #10
  %6 = load i32, ptr @core_preload_index, align 4, !tbaa !4
  %.not = icmp eq i32 %6, 0
  br i1 %.not, label %select.unfold.thread, label %7

7:                                                ; preds = %3
  %8 = getelementptr inbounds nuw i8, ptr %0, i64 12
  %9 = load i32, ptr %8, align 4, !tbaa !8
  %10 = add i32 %9, -2
  %or.cond = icmp ult i32 %10, 998
  br i1 %or.cond, label %11, label %select.unfold

11:                                               ; preds = %7
  %12 = tail call i32 @git_env_bool(ptr noundef nonnull @.str, i32 noundef 0) #10
  %.not49 = icmp eq i32 %12, 0
  br i1 %.not49, label %select.unfold.thread, label %.thread

select.unfold:                                    ; preds = %7
  %13 = udiv i32 %9, 500
  %14 = icmp ult i32 %9, 1000
  br i1 %14, label %select.unfold.thread, label %.thread

.thread:                                          ; preds = %11, %select.unfold
  %.060 = phi i32 [ %13, %select.unfold ], [ 2, %11 ]
  tail call void (ptr, i32, ptr, ptr, ptr, ...) @trace2_region_enter_fl(ptr noundef nonnull @.str.1, i32 noundef 124, ptr noundef nonnull @.str.2, ptr noundef nonnull @.str.3, ptr noundef null) #10
  %15 = tail call i64 @trace_performance_enter() #10
  %spec.store.select = tail call i32 @llvm.umin.i32(i32 %.060, i32 20)
  %16 = load i32, ptr %8, align 4, !tbaa !8
  %17 = add nsw i32 %spec.store.select, -1
  %18 = add i32 %17, %16
  %19 = udiv i32 %18, %spec.store.select
  call void @llvm.memset.p0.i64(ptr noundef nonnull align 16 dereferenceable(1280) %4, i8 0, i64 1280, i1 false)
  call void @llvm.memset.p0.i64(ptr noundef nonnull align 8 dereferenceable(56) %5, i8 0, i64 56, i1 false)
  %20 = and i32 %2, 64
  %.not50 = icmp eq i32 %20, 0
  br i1 %.not50, label %34, label %21

21:                                               ; preds = %.thread
  %22 = tail call i32 @isatty(i32 noundef 2) #10
  %.not51 = icmp eq i32 %22, 0
  br i1 %.not51, label %34, label %23

23:                                               ; preds = %21
  %24 = load ptr, ptr @the_repository, align 8, !tbaa !26
  %25 = load i32, ptr @git_gettext_enabled, align 4, !tbaa !4
  %.not4.i = icmp eq i32 %25, 0
  br i1 %.not4.i, label %_.exit, label %26

26:                                               ; preds = %23
  %27 = tail call ptr @dcgettext(ptr noundef null, ptr noundef nonnull @.str.4, i32 noundef 5) #10
  br label %_.exit

_.exit:                                           ; preds = %23, %26
  %.0.i = phi ptr [ %27, %26 ], [ @.str.4, %23 ]
  %28 = load i32, ptr %8, align 4, !tbaa !8
  %29 = zext i32 %28 to i64
  %30 = tail call ptr @start_delayed_progress(ptr noundef %24, ptr noundef %.0.i, i64 noundef %29) #10
  %31 = getelementptr inbounds nuw i8, ptr %5, i64 8
  store ptr %30, ptr %31, align 8, !tbaa !27
  %32 = getelementptr inbounds nuw i8, ptr %5, i64 16
  %33 = call i32 @pthread_mutex_init(ptr noundef nonnull %32, ptr noundef null) #10
  br label %34

34:                                               ; preds = %_.exit, %21, %.thread
  %.not55 = icmp eq ptr %1, null
  %35 = getelementptr inbounds nuw i8, ptr %5, i64 8
  %umax81 = call i32 @llvm.umax.i32(i32 %spec.store.select, i32 1)
  %wide.trip.count82 = zext nneg i32 %umax81 to i64
  br i1 %.not55, label %.split.us, label %.split

.split.us:                                        ; preds = %34, %45
  %indvars.iv78 = phi i64 [ %indvars.iv.next79, %45 ], [ 0, %34 ]
  %.04464.us = phi i32 [ %46, %45 ], [ 0, %34 ]
  %36 = getelementptr inbounds nuw %struct.thread_data, ptr %4, i64 %indvars.iv78
  %37 = getelementptr inbounds nuw i8, ptr %36, i64 8
  store ptr %0, ptr %37, align 8, !tbaa !30
  %38 = getelementptr inbounds nuw i8, ptr %36, i64 48
  store i32 %.04464.us, ptr %38, align 16, !tbaa !36
  %39 = getelementptr inbounds nuw i8, ptr %36, i64 52
  store i32 %19, ptr %39, align 4, !tbaa !37
  %40 = load ptr, ptr %35, align 8, !tbaa !27
  %.not56.us = icmp eq ptr %40, null
  br i1 %.not56.us, label %43, label %41

41:                                               ; preds = %.split.us
  %42 = getelementptr inbounds nuw i8, ptr %36, i64 40
  store ptr %5, ptr %42, align 8, !tbaa !38
  br label %43

43:                                               ; preds = %41, %.split.us
  %44 = call i32 @pthread_create(ptr noundef nonnull %36, ptr noundef null, ptr noundef nonnull @preload_thread, ptr noundef nonnull %36) #10
  %.not57.us = icmp eq i32 %44, 0
  br i1 %.not57.us, label %45, label %.split67.us

45:                                               ; preds = %43
  %46 = add nuw nsw i32 %.04464.us, %19
  %indvars.iv.next79 = add nuw nsw i64 %indvars.iv78, 1
  %exitcond83.not = icmp eq i64 %indvars.iv.next79, %wide.trip.count82
  br i1 %exitcond83.not, label %.preheader62.preheader, label %.split.us, !llvm.loop !39

.split:                                           ; preds = %34, %59
  %indvars.iv = phi i64 [ %indvars.iv.next, %59 ], [ 0, %34 ]
  %.04464 = phi i32 [ %60, %59 ], [ 0, %34 ]
  %47 = getelementptr inbounds nuw %struct.thread_data, ptr %4, i64 %indvars.iv
  %48 = getelementptr inbounds nuw i8, ptr %47, i64 8
  store ptr %0, ptr %48, align 8, !tbaa !30
  %49 = getelementptr inbounds nuw i8, ptr %47, i64 16
  call void @copy_pathspec(ptr noundef nonnull %49, ptr noundef nonnull %1) #10
  %50 = getelementptr inbounds nuw i8, ptr %47, i64 48
  store i32 %.04464, ptr %50, align 16, !tbaa !36
  %51 = getelementptr inbounds nuw i8, ptr %47, i64 52
  store i32 %19, ptr %51, align 4, !tbaa !37
  %52 = load ptr, ptr %35, align 8, !tbaa !27
  %.not56 = icmp eq ptr %52, null
  br i1 %.not56, label %55, label %53

53:                                               ; preds = %.split
  %54 = getelementptr inbounds nuw i8, ptr %47, i64 40
  store ptr %5, ptr %54, align 8, !tbaa !38
  br label %55

55:                                               ; preds = %53, %.split
  %56 = call i32 @pthread_create(ptr noundef nonnull %47, ptr noundef null, ptr noundef nonnull @preload_thread, ptr noundef nonnull %47) #10
  %.not57 = icmp eq i32 %56, 0
  br i1 %.not57, label %59, label %.split67.us

.split67.us:                                      ; preds = %55, %43
  %.us-phi = phi i32 [ %44, %43 ], [ %56, %55 ]
  %57 = call fastcc ptr @_(ptr noundef nonnull @.str.5)
  %58 = call ptr @strerror(i32 noundef %.us-phi) #10
  call void (ptr, ...) @die(ptr noundef %57, ptr noundef %58) #11
  unreachable

59:                                               ; preds = %55
  %60 = add nuw nsw i32 %.04464, %19
  %indvars.iv.next = add nuw nsw i64 %indvars.iv, 1
  %exitcond.not = icmp eq i64 %indvars.iv.next, %wide.trip.count82
  br i1 %exitcond.not, label %.preheader62.preheader, label %.split, !llvm.loop !39

.preheader62.preheader:                           ; preds = %59, %45
  br label %.preheader62

.preheader62:                                     ; preds = %.preheader62.preheader, %65
  %indvars.iv84 = phi i64 [ %indvars.iv.next85, %65 ], [ 0, %.preheader62.preheader ]
  %.04568 = phi i32 [ %68, %65 ], [ 0, %.preheader62.preheader ]
  %61 = getelementptr inbounds nuw %struct.thread_data, ptr %4, i64 %indvars.iv84
  %62 = load i64, ptr %61, align 16, !tbaa !41
  %63 = call i32 @pthread_join(i64 noundef %62, ptr noundef null) #10
  %.not54 = icmp eq i32 %63, 0
  br i1 %.not54, label %65, label %64

64:                                               ; preds = %.preheader62
  call void (ptr, ...) @die(ptr noundef nonnull @.str.6) #11
  unreachable

65:                                               ; preds = %.preheader62
  %66 = getelementptr inbounds nuw i8, ptr %61, i64 56
  %67 = load i32, ptr %66, align 8, !tbaa !42
  %68 = add nsw i32 %67, %.04568
  %indvars.iv.next85 = add nuw nsw i64 %indvars.iv84, 1
  %exitcond89.not = icmp eq i64 %indvars.iv.next85, %wide.trip.count82
  br i1 %exitcond89.not, label %69, label %.preheader62, !llvm.loop !43

69:                                               ; preds = %65
  %70 = load i32, ptr @git_gettext_enabled, align 4, !tbaa !4
  %.not4.i.i = icmp eq i32 %70, 0
  br i1 %.not4.i.i, label %stop_progress.exit, label %71

71:                                               ; preds = %69
  %72 = call ptr @dcgettext(ptr noundef null, ptr noundef nonnull @.str.12, i32 noundef 5) #10
  br label %stop_progress.exit

stop_progress.exit:                               ; preds = %69, %71
  %.0.i.i = phi ptr [ %72, %71 ], [ @.str.12, %69 ]
  call void @stop_progress_msg(ptr noundef nonnull %35, ptr noundef %.0.i.i) #10
  br i1 %.not55, label %.loopexit, label %.preheader

.preheader:                                       ; preds = %stop_progress.exit, %.preheader
  %indvars.iv90 = phi i64 [ %indvars.iv.next91, %.preheader ], [ 0, %stop_progress.exit ]
  %73 = getelementptr inbounds nuw [20 x %struct.thread_data], ptr %4, i64 0, i64 %indvars.iv90, i32 2
  call void @clear_pathspec(ptr noundef nonnull %73) #10
  %indvars.iv.next91 = add nuw nsw i64 %indvars.iv90, 1
  %exitcond94.not = icmp eq i64 %indvars.iv.next91, %wide.trip.count82
  br i1 %exitcond94.not, label %.loopexit, label %.preheader, !llvm.loop !44

.loopexit:                                        ; preds = %.preheader, %stop_progress.exit
  %trace_perf_key.val = load i32, ptr getelementptr inbounds nuw (i8, ptr @trace_perf_key, i64 8), align 8, !tbaa !45
  %trace_perf_key.val58 = load i8, ptr getelementptr inbounds nuw (i8, ptr @trace_perf_key, i64 12), align 4
  %.not.i = icmp eq i32 %trace_perf_key.val, 0
  %74 = and i8 %trace_perf_key.val58, 1
  %.not5361 = icmp ne i8 %74, 0
  %.not53 = select i1 %.not.i, i1 %.not5361, i1 false
  br i1 %.not53, label %77, label %75

75:                                               ; preds = %.loopexit
  %76 = call i64 @getnanotime() #10
  call void (ptr, i32, i64, ptr, ...) @trace_performance_leave_fl(ptr noundef nonnull @.str.1, i32 noundef 172, i64 noundef %76, ptr noundef nonnull @.str.7) #10
  br label %77

77:                                               ; preds = %75, %.loopexit
  %78 = sext i32 %68 to i64
  call void @trace2_data_intmax_fl(ptr noundef nonnull @.str.1, i32 noundef 174, ptr noundef nonnull @.str.2, ptr noundef null, ptr noundef nonnull @.str.8, i64 noundef %78) #10
  call void (ptr, i32, ptr, ptr, ptr, ...) @trace2_region_leave_fl(ptr noundef nonnull @.str.1, i32 noundef 175, ptr noundef nonnull @.str.2, ptr noundef nonnull @.str.3, ptr noundef null) #10
  br label %select.unfold.thread

select.unfold.thread:                             ; preds = %11, %select.unfold, %3, %77
  call void @llvm.lifetime.end.p0(i64 56, ptr nonnull %5) #10
  call void @llvm.lifetime.end.p0(i64 1280, ptr nonnull %4) #10
  ret void
}